target datalayout = "e-m:e-p270:32:32-p271:32:32-p272:64:64-i64:64-i128:128-f80:128-n8:16:32:64-S128"
target triple = "x86_64-pc-linux-gnu"

%struct.magic_set = type { [2 x ptr], %struct.cont, %struct.out, i32, i32, i32, i32, i32, ptr, i64, i32, %struct.anon, %union.VALUETYPE, i16, i16, i16, i16, i16, i16, i64, i64, i64 }
%struct.cont = type { i64, ptr }
%struct.out = type { ptr, i64, ptr }
%struct.anon = type { ptr, i64, i64, i64 }
%union.VALUETYPE = type { [2 x i64], [112 x i8] }
%struct.magic = type { i16, i8, i8, i8, i8, i8, i8, i8, i8, i8, i8, i32, i32, i32, %union.anon, %union.VALUETYPE, [64 x i8], [80 x i8], [8 x i8], [64 x i8] }
%union.anon = type { i64 }

@.str.14 = private unnamed_addr constant [3 x i8] c"%s\00", align 1
@.str.38 = private unnamed_addr constant [5 x i8] c"%.8s\00", align 1

; Function Attrs: nounwind uwtable
define internal i32 @print_sep(ptr noundef %0, i32 noundef %1) #0 {
  %3 = alloca i32, align 4
  %4 = alloca ptr, align 8
  %5 = alloca i32, align 4
  store ptr %0, ptr %4, align 8
  store i32 %1, ptr %5, align 4
  %6 = load i32, ptr %5, align 4
  %7 = icmp ne i32 %6, 0
  br i1 %7, label %8, label %9

8:                                                ; preds = %2
  store i32 0, ptr %3, align 4
  br label %12

9:                                                ; preds = %2
  %10 = load ptr, ptr %4, align 8
  %11 = call i32 @file_separator(ptr noundef %10)
  store i32 %11, ptr %3, align 4
  br label %12

12:                                               ; preds = %9, %8
  %13 = load i32, ptr %3, align 4
  ret i32 %13
}

; Function Attrs: nounwind uwtable
define internal i32 @handle_annotation(ptr noundef %0, ptr noundef %1, i32 noundef %2) #0 {
  %4 = alloca i32, align 4
  %5 = alloca ptr, align 8
  %6 = alloca ptr, align 8
  %7 = alloca i32, align 4
  %8 = alloca [1024 x i8], align 16
  %9 = alloca ptr, align 8
  store ptr %0, ptr %5, align 8
  store ptr %1, ptr %6, align 8
  store i32 %2, ptr %7, align 4
  %10 = load ptr, ptr %5, align 8
  %11 = getelementptr inbounds %struct.magic_set, ptr %10, i32 0, i32 6
  %12 = load i32, ptr %11, align 4
  %13 = and i32 %12, 2048
  %14 = icmp ne i32 %13, 0
  br i1 %14, label %15, label %37

15:                                               ; preds = %3
  %16 = load ptr, ptr %6, align 8
  %17 = getelementptr inbounds %struct.magic, ptr %16, i32 0, i32 18
  %18 = getelementptr inbounds [8 x i8], ptr %17, i64 0, i64 0
  %19 = load i8, ptr %18, align 8
  %20 = sext i8 %19 to i32
  %21 = icmp ne i32 %20, 0
  br i1 %21, label %22, label %37

22:                                               ; preds = %15
  %23 = load ptr, ptr %5, align 8
  %24 = load i32, ptr %7, align 4
  %25 = call i32 @print_sep(ptr noundef %23, i32 noundef %24)
  %26 = icmp eq i32 %25, -1
  br i1 %26, label %27, label %28

27:                                               ; preds = %22
  store i32 -1, ptr %4, align 4
  br label %106

28:                                               ; preds = %22
  %29 = load ptr, ptr %5, align 8
  %30 = load ptr, ptr %6, align 8
  %31 = getelementptr inbounds %struct.magic, ptr %30, i32 0, i32 18
  %32 = getelementptr inbounds [8 x i8], ptr %31, i64 0, i64 0
  %33 = call i32 (ptr, ptr, ...) @file_printf(ptr noundef %29, ptr noundef @.str.38, ptr noundef %32)
  %34 = icmp eq i32 %33, -1
  br i1 %34, label %35, label %36

35:                                               ; preds = %28
  store i32 -1, ptr %4, align 4
  br label %106

36:                                               ; preds = %28
  store i32 1, ptr %4, align 4
  br label %106

37:                                               ; preds = %15, %3
  %38 = load ptr, ptr %5, align 8
  %39 = getelementptr inbounds %struct.magic_set, ptr %38, i32 0, i32 6
  %40 = load i32, ptr %39, align 4
  %41 = and i32 %40, 16777216
  %42 = icmp ne i32 %41, 0
  br i1 %42, label %43, label %65

43:                                               ; preds = %37
  %44 = load ptr, ptr %6, align 8
  %45 = getelementptr inbounds %struct.magic, ptr %44, i32 0, i32 19
  %46 = getelementptr inbounds [64 x i8], ptr %45, i64 0, i64 0
  %47 = load i8, ptr %46, align 8
  %48 = sext i8 %47 to i32
  %49 = icmp ne i32 %48, 0
  br i1 %49, label %50, label %65

50:                                               ; preds = %43
  %51 = load ptr, ptr %5, align 8
  %52 = load i32, ptr %7, align 4
  %53 = call i32 @print_sep(ptr noundef %51, i32 noundef %52)
  %54 = icmp eq i32 %53, -1
  br i1 %54, label %55, label %56

55:                                               ; preds = %50
  store i32 -1, ptr %4, align 4
  br label %106

56:                                               ; preds = %50
  %57 = load ptr, ptr %5, align 8
  %58 = load ptr, ptr %6, align 8
  %59 = getelementptr inbounds %struct.magic, ptr %58, i32 0, i32 19
  %60 = getelementptr inbounds [64 x i8], ptr %59, i64 0, i64 0
  %61 = call i32 (ptr, ptr, ...) @file_printf(ptr noundef %57, ptr noundef @.str.14, ptr noundef %60)
  %62 = icmp eq i32 %61, -1
  br i1 %62, label %63, label %64

63:                                               ; preds = %56
  store i32 -1, ptr %4, align 4
  br label %106

64:                                               ; preds = %56
  store i32 1, ptr %4, align 4
  br label %106

65:                                               ; preds = %43, %37
  %66 = load ptr, ptr %5, align 8
  %67 = getelementptr inbounds %struct.magic_set, ptr %66, i32 0, i32 6
  %68 = load i32, ptr %67, align 4
  %69 = and i32 %68, 16
  %70 = icmp ne i32 %69, 0
  br i1 %70, label %71, label %105

71:                                               ; preds = %65
  %72 = load ptr, ptr %6, align 8
  %73 = getelementptr inbounds %struct.magic, ptr %72, i32 0, i32 17
  %74 = getelementptr inbounds [80 x i8], ptr %73, i64 0, i64 0
  %75 = load i8, ptr %74, align 8
  %76 = sext i8 %75 to i32
  %77 = icmp ne i32 %76, 0
  br i1 %77, label %78, label %105

78:                                               ; preds = %71
  %79 = load ptr, ptr %5, align 8
  %80 = load i32, ptr %7, align 4
  %81 = call i32 @print_sep(ptr noundef %79, i32 noundef %80)
  %82 = icmp eq i32 %81, -1
  br i1 %82, label %83, label %84

83:                                               ; preds = %78
  store i32 -1, ptr %4, align 4
  br label %106

84:                                               ; preds = %78
  %85 = load ptr, ptr %5, align 8
  %86 = getelementptr inbounds [1024 x i8], ptr %8, i64 0, i64 0
  %87 = load ptr, ptr %6, align 8
  %88 = getelementptr inbounds %struct.magic, ptr %87, i32 0, i32 17
  %89 = getelementptr inbounds [80 x i8], ptr %88, i64 0, i64 0
  %90 = call i32 @varexpand(ptr noundef %85, ptr noundef %86, i64 noundef 1024, ptr noundef %89)
  %91 = icmp eq i32 %90, -1
  br i1 %91, label %92, label %96

92:                                               ; preds = %84
  %93 = load ptr, ptr %6, align 8
  %94 = getelementptr inbounds %struct.magic, ptr %93, i32 0, i32 17
  %95 = getelementptr inbounds [80 x i8], ptr %94, i64 0, i64 0
  store ptr %95, ptr %9, align 8
  br label %98

96:                                               ; preds = %84
  %97 = getelementptr inbounds [1024 x i8], ptr %8, i64 0, i64 0
  store ptr %97, ptr %9, align 8
  br label %98

98:                                               ; preds = %96, %92
  %99 = load ptr, ptr %5, align 8
  %100 = load ptr, ptr %9, align 8
  %101 = call i32 (ptr, ptr, ...) @file_printf(ptr noundef %99, ptr noundef @.str.14, ptr noundef %100)
  %102 = icmp eq i32 %101, -1
  br i1 %102, label %103, label %104

103:                                              ; preds = %98
  store i32 -1, ptr %4, align 4
  br label %106

104:                                              ; preds = %98
  store i32 1, ptr %4, align 4
  br label %106

105:                                              ; preds = %71, %65
  store i32 0, ptr %4, align 4
  br label %106

106:                                              ; preds = %105, %104, %103, %83, %64, %63, %55, %36, %35, %27
  %107 = load i32, ptr %4, align 4
  ret i32 %107
}