; Function Attrs: nounwind uwtable
define internal fastcc i32 @handle_annotation(ptr noundef %0, ptr noundef %1, i32 noundef %2) unnamed_addr #0 {
  %4 = alloca [1024 x i8], align 16
  %5 = getelementptr inbounds i8, ptr %0, i64 68
  %6 = load i32, ptr %5, align 4
  %7 = and i32 %6, 2048
  %.not = icmp eq i32 %7, 0
  br i1 %.not, label %16, label %8

8:                                                ; preds = %3
  %9 = getelementptr inbounds i8, ptr %1, i64 304
  %10 = load i8, ptr %9, align 8
  %.not22 = icmp eq i8 %10, 0
  br i1 %.not22, label %16, label %11

11:                                               ; preds = %8
  %.not.i = icmp eq i32 %2, 0
  br i1 %.not.i, label %print_sep.exit, label %print_sep.exit.thread

print_sep.exit:                                   ; preds = %11
  %12 = tail call i32 @file_separator(ptr noundef nonnull %0) #20
  %13 = icmp eq i32 %12, -1
  br i1 %13, label %38, label %print_sep.exit.thread

print_sep.exit.thread:                            ; preds = %11, %print_sep.exit
  %14 = tail call i32 (ptr, ptr, ...) @file_printf(ptr noundef nonnull %0, ptr noundef nonnull @.str.38, ptr noundef nonnull %9) #20
  %15 = icmp eq i32 %14, -1
  %. = select i1 %15, i32 -1, i32 1
  br label %38

16:                                               ; preds = %8, %3
  %17 = and i32 %6, 16777216
  %.not23 = icmp eq i32 %17, 0
  br i1 %.not23, label %26, label %18

18:                                               ; preds = %16
  %19 = getelementptr inbounds i8, ptr %1, i64 312
  %20 = load i8, ptr %19, align 8
  %.not24 = icmp eq i8 %20, 0
  br i1 %.not24, label %26, label %21

21:                                               ; preds = %18
  %.not.i29 = icmp eq i32 %2, 0
  br i1 %.not.i29, label %print_sep.exit31, label %print_sep.exit31.thread

print_sep.exit31:                                 ; preds = %21
  %22 = tail call i32 @file_separator(ptr noundef nonnull %0) #20
  %23 = icmp eq i32 %22, -1
  br i1 %23, label %38, label %print_sep.exit31.thread

print_sep.exit31.thread:                          ; preds = %21, %print_sep.exit31
  %24 = tail call i32 (ptr, ptr, ...) @file_printf(ptr noundef nonnull %0, ptr noundef nonnull @.str.14, ptr noundef nonnull %19) #20
  %25 = icmp eq i32 %24, -1
  %.27 = select i1 %25, i32 -1, i32 1
  br label %38

26:                                               ; preds = %18, %16
  %27 = and i32 %6, 16
  %.not25 = icmp eq i32 %27, 0
  br i1 %.not25, label %38, label %28

28:                                               ; preds = %26
  %29 = getelementptr inbounds i8, ptr %1, i64 224
  %30 = load i8, ptr %29, align 8
  %.not26 = icmp eq i8 %30, 0
  br i1 %.not26, label %38, label %31

31:                                               ; preds = %28
  %.not.i32 = icmp eq i32 %2, 0
  br i1 %.not.i32, label %print_sep.exit34, label %print_sep.exit34.thread

print_sep.exit34:                                 ; preds = %31
  %32 = tail call i32 @file_separator(ptr noundef nonnull %0) #20
  %33 = icmp eq i32 %32, -1
  br i1 %33, label %38, label %print_sep.exit34.thread

print_sep.exit34.thread:                          ; preds = %31, %print_sep.exit34
  %34 = call fastcc i32 @varexpand(ptr noundef nonnull %0, ptr noundef nonnull %4, i64 noundef 1024, ptr noundef nonnull %29), !range !4
  %35 = icmp eq i32 %34, -1
  %.28 = select i1 %35, ptr %29, ptr %4
  %36 = call i32 (ptr, ptr, ...) @file_printf(ptr noundef nonnull %0, ptr noundef nonnull @.str.14, ptr noundef nonnull %.28) #20
  %37 = icmp eq i32 %36, -1
  %spec.select = select i1 %37, i32 -1, i32 1
  br label %38

38:                                               ; preds = %print_sep.exit34.thread, %26, %28, %print_sep.exit34, %print_sep.exit31.thread, %print_sep.exit31, %print_sep.exit.thread, %print_sep.exit
  %.021 = phi i32 [ -1, %print_sep.exit ], [ %., %print_sep.exit.thread ], [ -1, %print_sep.exit31 ], [ %.27, %print_sep.exit31.thread ], [ -1, %print_sep.exit34 ], [ 0, %28 ], [ 0, %26 ], [ %spec.select, %print_sep.exit34.thread ]
  ret i32 %.021
}